target datalayout = "e-m:e-p270:32:32-p271:32:32-p272:64:64-i64:64-i128:128-f80:128-n8:16:32:64-S128"
target triple = "x86_64-pc-linux-gnu"

%struct.object = type { i32, %struct.object_id }
%struct.object_id = type { [32 x i8], i32 }

@.str = private unnamed_addr constant [4 x i8] c"%s \00", align 1

; Function Attrs: nounwind uwtable
define dso_local void @show_object_with_name(ptr noundef %0, ptr noundef %1, ptr noundef %2) #0 {
  %4 = alloca ptr, align 8
  %5 = alloca ptr, align 8
  %6 = alloca ptr, align 8
  %7 = alloca ptr, align 8
  store ptr %0, ptr %4, align 8, !tbaa !35
  store ptr %1, ptr %5, align 8, !tbaa !37
  store ptr %2, ptr %6, align 8, !tbaa !39
  %8 = load ptr, ptr %4, align 8, !tbaa !35
  %9 = load ptr, ptr %5, align 8, !tbaa !37
  %10 = getelementptr inbounds nuw %struct.object, ptr %9, i32 0, i32 1
  %11 = call ptr @oid_to_hex(ptr noundef %10)
  %12 = call i32 (ptr, ptr, ...) @fprintf(ptr noundef %8, ptr noundef @.str, ptr noundef %11) #12
  call void @llvm.lifetime.start.p0(i64 8, ptr %7) #12
  %13 = load ptr, ptr %6, align 8, !tbaa !39
  store ptr %13, ptr %7, align 8, !tbaa !39
  br label %14

14:                                               ; preds = %33, %3
  %15 = load ptr, ptr %7, align 8, !tbaa !39
  %16 = load i8, ptr %15, align 1, !tbaa !41
  %17 = sext i8 %16 to i32
  %18 = icmp ne i32 %17, 0
  br i1 %18, label %19, label %24

19:                                               ; preds = %14
  %20 = load ptr, ptr %7, align 8, !tbaa !39
  %21 = load i8, ptr %20, align 1, !tbaa !41
  %22 = sext i8 %21 to i32
  %23 = icmp ne i32 %22, 10
  br label %24

24:                                               ; preds = %19, %14
  %25 = phi i1 [ false, %14 ], [ %23, %19 ]
  br i1 %25, label %27, label %26

26:                                               ; preds = %24
  call void @llvm.lifetime.end.p0(i64 8, ptr %7) #12
  br label %36

27:                                               ; preds = %24
  %28 = load ptr, ptr %7, align 8, !tbaa !39
  %29 = load i8, ptr %28, align 1, !tbaa !41
  %30 = sext i8 %29 to i32
  %31 = load ptr, ptr %4, align 8, !tbaa !35
  %32 = call i32 @fputc(i32 noundef %30, ptr noundef %31)
  br label %33

33:                                               ; preds = %27
  %34 = load ptr, ptr %7, align 8, !tbaa !39
  %35 = getelementptr inbounds nuw i8, ptr %34, i32 1
  store ptr %35, ptr %7, align 8, !tbaa !39
  br label %14, !llvm.loop !42

36:                                               ; preds = %26
  %37 = load ptr, ptr %4, align 8, !tbaa !35
  %38 = call i32 @fputc(i32 noundef 10, ptr noundef %37)
  ret void
}