; Function Attrs: nounwind uwtable
define dso_local void @show_object_with_name(ptr noundef captures(none) %0, ptr noundef %1, ptr noundef readonly captures(none) %2) local_unnamed_addr #2 {
  %4 = getelementptr inbounds nuw i8, ptr %1, i64 4
  %5 = tail call ptr @oid_to_hex(ptr noundef nonnull %4) #26
  %6 = tail call i32 (ptr, ptr, ...) @fprintf(ptr noundef %0, ptr noundef nonnull @.str, ptr noundef %5) #26
  br label %7

7:                                                ; preds = %10, %3
  %.0 = phi ptr [ %2, %3 ], [ %13, %10 ]
  %8 = load i8, ptr %.0, align 1, !tbaa !28
  switch i8 %8, label %10 [
    i8 0, label %.critedge
    i8 10, label %.critedge
  ]

.critedge:                                        ; preds = %7, %7
  %9 = tail call i32 @fputc(i32 noundef 10, ptr noundef %0)
  ret void

10:                                               ; preds = %7
  %11 = sext i8 %8 to i32
  %12 = tail call i32 @fputc(i32 noundef %11, ptr noundef %0)
  %13 = getelementptr inbounds nuw i8, ptr %.0, i64 1
  br label %7, !llvm.loop !29
}